target datalayout = "e-m:e-p270:32:32-p271:32:32-p272:64:64-i64:64-i128:128-f80:128-n8:16:32:64-S128"
target triple = "x86_64-pc-linux-gnu"

%struct.AVOption = type { ptr, ptr, i32, i32, %union.anon, double, double, i32, ptr }
%union.anon = type { i64 }

; Function Attrs: nounwind uwtable
define ptr @av_opt_find(ptr noundef %0, ptr noundef %1, ptr noundef %2, i32 noundef %3, i32 noundef %4) #0 {
  %6 = alloca ptr, align 8
  %7 = alloca ptr, align 8
  %8 = alloca ptr, align 8
  %9 = alloca i32, align 4
  %10 = alloca i32, align 4
  store ptr %0, ptr %6, align 8, !tbaa !4
  store ptr %1, ptr %7, align 8, !tbaa !19
  store ptr %2, ptr %8, align 8, !tbaa !19
  store i32 %3, ptr %9, align 4, !tbaa !20
  store i32 %4, ptr %10, align 4, !tbaa !20
  %11 = load ptr, ptr %6, align 8, !tbaa !4
  %12 = load ptr, ptr %7, align 8, !tbaa !19
  %13 = load ptr, ptr %8, align 8, !tbaa !19
  %14 = load i32, ptr %9, align 4, !tbaa !20
  %15 = load i32, ptr %10, align 4, !tbaa !20
  %16 = call ptr @av_opt_find2(ptr noundef %11, ptr noundef %12, ptr noundef %13, i32 noundef %14, i32 noundef %15, ptr noundef null)
  ret ptr %16
}

; Function Attrs: nounwind uwtable
define i32 @av_opt_flag_is_set(ptr noundef %0, ptr noundef %1, ptr noundef %2) #0 {
  %4 = alloca i32, align 4
  %5 = alloca ptr, align 8
  %6 = alloca ptr, align 8
  %7 = alloca ptr, align 8
  %8 = alloca ptr, align 8
  %9 = alloca ptr, align 8
  %10 = alloca i64, align 8
  %11 = alloca i32, align 4
  store ptr %0, ptr %5, align 8, !tbaa !4
  store ptr %1, ptr %6, align 8, !tbaa !19
  store ptr %2, ptr %7, align 8, !tbaa !19
  call void @llvm.lifetime.start.p0(i64 8, ptr %8) #11
  %12 = load ptr, ptr %5, align 8, !tbaa !4
  %13 = load ptr, ptr %6, align 8, !tbaa !19
  %14 = call ptr @av_opt_find(ptr noundef %12, ptr noundef %13, ptr noundef null, i32 noundef 0, i32 noundef 0)
  store ptr %14, ptr %8, align 8, !tbaa !8
  call void @llvm.lifetime.start.p0(i64 8, ptr %9) #11
  %15 = load ptr, ptr %5, align 8, !tbaa !4
  %16 = load ptr, ptr %7, align 8, !tbaa !19
  %17 = load ptr, ptr %8, align 8, !tbaa !8
  %18 = icmp ne ptr %17, null
  br i1 %18, label %19, label %23

19:                                               ; preds = %3
  %20 = load ptr, ptr %8, align 8, !tbaa !8
  %21 = getelementptr inbounds nuw %struct.AVOption, ptr %20, i32 0, i32 8
  %22 = load ptr, ptr %21, align 8, !tbaa !52
  br label %24

23:                                               ; preds = %3
  br label %24

24:                                               ; preds = %23, %19
  %25 = phi ptr [ %22, %19 ], [ null, %23 ]
  %26 = call ptr @av_opt_find(ptr noundef %15, ptr noundef %16, ptr noundef %25, i32 noundef 0, i32 noundef 0)
  store ptr %26, ptr %9, align 8, !tbaa !8
  call void @llvm.lifetime.start.p0(i64 8, ptr %10) #11
  %27 = load ptr, ptr %8, align 8, !tbaa !8
  %28 = icmp ne ptr %27, null
  br i1 %28, label %29, label %42

29:                                               ; preds = %24
  %30 = load ptr, ptr %9, align 8, !tbaa !8
  %31 = icmp ne ptr %30, null
  br i1 %31, label %32, label %42

32:                                               ; preds = %29
  %33 = load ptr, ptr %9, align 8, !tbaa !8
  %34 = getelementptr inbounds nuw %struct.AVOption, ptr %33, i32 0, i32 3
  %35 = load i32, ptr %34, align 4, !tbaa !21
  %36 = icmp ne i32 %35, 11
  br i1 %36, label %42, label %37

37:                                               ; preds = %32
  %38 = load ptr, ptr %5, align 8, !tbaa !4
  %39 = load ptr, ptr %6, align 8, !tbaa !19
  %40 = call i32 @av_opt_get_int(ptr noundef %38, ptr noundef %39, i32 noundef 0, ptr noundef %10)
  %41 = icmp slt i32 %40, 0
  br i1 %41, label %42, label %43

42:                                               ; preds = %37, %32, %29, %24
  store i32 0, ptr %4, align 4
  store i32 1, ptr %11, align 4
  br label %50

43:                                               ; preds = %37
  %44 = load i64, ptr %10, align 8, !tbaa !39
  %45 = load ptr, ptr %9, align 8, !tbaa !8
  %46 = getelementptr inbounds nuw %struct.AVOption, ptr %45, i32 0, i32 4
  %47 = load i64, ptr %46, align 8, !tbaa !35
  %48 = and i64 %44, %47
  %49 = trunc i64 %48 to i32
  store i32 %49, ptr %4, align 4
  store i32 1, ptr %11, align 4
  br label %50

50:                                               ; preds = %43, %42
  call void @llvm.lifetime.end.p0(i64 8, ptr %10) #11
  call void @llvm.lifetime.end.p0(i64 8, ptr %9) #11
  call void @llvm.lifetime.end.p0(i64 8, ptr %8) #11
  %51 = load i32, ptr %4, align 4
  ret i32 %51
}