; Function Attrs: nounwind uwtable
define i32 @av_opt_flag_is_set(ptr noundef %0, ptr noundef %1, ptr noundef %2) local_unnamed_addr #2 {
  %4 = alloca i64, align 8
  %.not.i = icmp eq ptr %0, null
  br i1 %.not.i, label %.thread, label %5

5:                                                ; preds = %3
  %6 = load ptr, ptr %0, align 8, !tbaa !4
  %.fr101.i = freeze ptr %6
  %.not60.i = icmp eq ptr %.fr101.i, null
  br i1 %.not60.i, label %.thread, label %7

7:                                                ; preds = %5
  %8 = getelementptr inbounds nuw i8, ptr %.fr101.i, i64 16
  br label %.thread89.split.us.split.i

.thread89.split.us.split.i:                       ; preds = %.thread89.split.us.split.i.backedge, %7
  %.5.us.i = phi ptr [ null, %7 ], [ %.0.i78.ph.us.i, %.thread89.split.us.split.i.backedge ]
  %9 = icmp eq ptr %.5.us.i, null
  br i1 %9, label %13, label %10

10:                                               ; preds = %.thread89.split.us.split.i
  %11 = getelementptr inbounds nuw i8, ptr %.5.us.i, i64 64
  %12 = load ptr, ptr %11, align 8, !tbaa !14
  %.not19.i.us.i = icmp eq ptr %12, null
  br i1 %.not19.i.us.i, label %.thread, label %17

13:                                               ; preds = %.thread89.split.us.split.i
  %14 = load ptr, ptr %8, align 8, !tbaa !9
  %.not16.i.us.i = icmp eq ptr %14, null
  br i1 %.not16.i.us.i, label %.thread, label %15

15:                                               ; preds = %13
  %16 = load ptr, ptr %14, align 8, !tbaa !14
  %.not17.i.us.i = icmp eq ptr %16, null
  br i1 %.not17.i.us.i, label %.thread, label %17

17:                                               ; preds = %15, %10
  %18 = phi ptr [ %12, %10 ], [ %16, %15 ]
  %.0.i78.ph.us.i = phi ptr [ %11, %10 ], [ %14, %15 ]
  %19 = tail call i32 @strcmp(ptr noundef nonnull dereferenceable(1) %18, ptr noundef nonnull dereferenceable(1) %1) #19
  %.not68.us.i = icmp eq i32 %19, 0
  br i1 %.not68.us.i, label %20, label %.thread89.split.us.split.i.backedge

20:                                               ; preds = %17
  %21 = getelementptr inbounds nuw i8, ptr %.0.i78.ph.us.i, i64 20
  %22 = load i32, ptr %21, align 4, !tbaa !18
  %.not70.us.i = icmp eq i32 %22, 11
  br i1 %.not70.us.i, label %.thread89.split.us.split.i.backedge, label %24

.thread89.split.us.split.i.backedge:              ; preds = %20, %17
  br label %.thread89.split.us.split.i, !llvm.loop !63

.thread:                                          ; preds = %10, %13, %15, %5, %3
  %23 = tail call ptr @av_opt_find2(ptr noundef %0, ptr noundef %2, ptr noundef null, i32 noundef 0, i32 noundef 0, ptr noundef null)
  call void @llvm.lifetime.start.p0(i64 8, ptr nonnull %4) #18
  br label %40

24:                                               ; preds = %20
  %25 = getelementptr inbounds nuw i8, ptr %.0.i78.ph.us.i, i64 56
  %26 = load ptr, ptr %25, align 8, !tbaa !48
  %27 = tail call ptr @av_opt_find2(ptr noundef nonnull %0, ptr noundef %2, ptr noundef %26, i32 noundef 0, i32 noundef 0, ptr noundef null)
  call void @llvm.lifetime.start.p0(i64 8, ptr nonnull %4) #18
  %.not17 = icmp eq ptr %27, null
  br i1 %.not17, label %40, label %28

28:                                               ; preds = %24
  %29 = getelementptr inbounds nuw i8, ptr %27, i64 20
  %30 = load i32, ptr %29, align 4, !tbaa !18
  %.not = icmp eq i32 %30, 11
  br i1 %.not, label %31, label %40

31:                                               ; preds = %28
  %32 = call i32 @av_opt_get_int(ptr noundef nonnull %0, ptr noundef nonnull %1, i32 noundef 0, ptr noundef nonnull %4)
  %33 = icmp slt i32 %32, 0
  br i1 %33, label %40, label %34

34:                                               ; preds = %31
  %35 = load i64, ptr %4, align 8, !tbaa !44
  %36 = getelementptr inbounds nuw i8, ptr %27, i64 24
  %37 = load i64, ptr %36, align 8, !tbaa !29
  %38 = and i64 %37, %35
  %39 = trunc i64 %38 to i32
  br label %40

40:                                               ; preds = %.thread, %24, %28, %31, %34
  %.0 = phi i32 [ %39, %34 ], [ 0, %31 ], [ 0, %28 ], [ 0, %24 ], [ 0, %.thread ]
  call void @llvm.lifetime.end.p0(i64 8, ptr nonnull %4) #18
  ret i32 %.0
}